; Function Attrs: nounwind uwtable
define internal noundef i32 @H5SM__cache_table_get_initial_load_size(ptr noundef readonly captures(none) %0, ptr noundef writeonly captures(none) %1) #0 {
  %3 = load i8, ptr @H5SM_init_g, align 1, !tbaa !3, !range !7, !noundef !8
  %4 = trunc nuw i8 %3 to i1
  %5 = load i8, ptr @H5_libterm_g, align 1, !range !7
  %6 = trunc nuw i8 %5 to i1
  %7 = xor i1 %6, true
  %8 = select i1 %4, i1 true, i1 %7
  br i1 %8, label %9, label %23, !prof !9

9:                                                ; preds = %2
  %10 = load ptr, ptr %0, align 8, !tbaa !10
  %11 = tail call i32 @H5F_get_sohm_nindexes(ptr noundef %10) #6
  %12 = load ptr, ptr %0, align 8, !tbaa !10
  %13 = tail call zeroext i8 @H5F_sizeof_addr(ptr noundef %12) #6
  %14 = zext i8 %13 to i32
  %15 = add nuw nsw i32 %14, 14
  %16 = load ptr, ptr %0, align 8, !tbaa !10
  %17 = tail call zeroext i8 @H5F_sizeof_addr(ptr noundef %16) #6
  %18 = zext i8 %17 to i32
  %19 = add nuw nsw i32 %15, %18
  %20 = mul i32 %19, %11
  %21 = add i32 %20, 8
  %22 = zext i32 %21 to i64
  store i64 %22, ptr %1, align 8, !tbaa !14
  br label %23

23:                                               ; preds = %9, %2
  ret i32 0
}